target datalayout = "e-m:e-p270:32:32-p271:32:32-p272:64:64-i64:64-i128:128-f80:128-n8:16:32:64-S128"
target triple = "x86_64-pc-linux-gnu"

%struct.redisServer = type { i32, i64, ptr, ptr, ptr, i32, i32, i32, i32, i32, ptr, ptr, ptr, ptr, ptr, i32, i32, i32, i32, i64, i32, i32, i32, i32, ptr, i32, i32, [41 x i8], i32, i64, i32, i32, i32, ptr, ptr, i32, i32, i64, ptr, ptr, ptr, ptr, [2 x i32], i32, i32, i32, i32, i32, i32, [16 x ptr], i32, ptr, ptr, i32, [8 x %struct.connListener], i32, %struct.connListener, ptr, ptr, ptr, ptr, ptr, ptr, ptr, ptr, ptr, ptr, i32, ptr, i32, ptr, [3 x %struct.pause_event], [256 x i8], ptr, i64, i32, i32, [128 x i32], i32, i32, i64, i32, i32, i32, i32, i32, i64, i64, i64, i64, i64, i64, i64, i64, i64, i64, double, i64, i64, i64, i64, i64, i64, i64, i64, i64, i64, i64, i64, i64, i64, i64, i64, i64, i64, i64, i64, i64, double, i64, i64, i64, i64, i64, ptr, i64, i64, i64, %struct.malloc_stats, i64, i64, i64, i64, i64, i64, i64, i64, i64, i64, i64, i64, double, [4 x i64], i64, i64, i64, i64, [128 x i64], [128 x i64], i64, i64, [7 x %struct.anon], i64, i64, i64, i64, i64, i64, [4 x %struct.durationStats], i32, i32, i32, i32, i32, i32, i32, i32, i32, i32, i32, i32, i64, i32, i32, i32, i32, i64, i64, i32, i32, i32, i32, i32, ptr, [3 x %struct.clientBufferLimitsConfig], i32, i32, i32, ptr, i32, i32, i32, i32, i32, i32, ptr, ptr, i32, i32, i64, i64, i64, i64, i64, i32, i32, ptr, i32, i32, i64, i64, i64, i64, i64, i32, i32, i64, i32, i32, i32, i32, i32, i32, i32, i32, ptr, i32, i64, i64, i64, i64, i32, ptr, i32, ptr, i32, i32, i32, i64, i64, i64, i64, i32, i32, i32, i32, i32, i32, ptr, i32, i32, ptr, i32, i32, i32, [2 x i32], i32, %struct.redisOpArray, i32, ptr, i32, ptr, i32, i32, i32, i32, i32, i32, i32, [41 x i8], [41 x i8], i64, i64, i64, i64, i32, i32, ptr, i64, i64, %struct.replDataBuf, i64, i64, i32, i32, i32, i32, i32, i32, i32, i32, i32, i64, ptr, i64, ptr, ptr, ptr, i32, i32, ptr, ptr, i32, i32, i32, i64, i64, i64, i64, ptr, ptr, i32, ptr, i64, i32, i32, i32, i64, i32, i32, i32, i32, ptr, i32, i32, [41 x i8], i64, i32, ptr, i32, i32, i64, i64, i32, i32, i32, i32, i32, i64, [3 x i32], i32, i32, i32, [10 x i32], ptr, ptr, i32, i64, ptr, ptr, i32, i32, i32, i32, i64, i64, i64, i64, i64, i64, i64, i64, i64, i64, i32, i32, i64, i64, i32, i64, i64, i64, i64, i64, ptr, ptr, i32, ptr, i32, i32, i32, i32, i64, i64, ptr, ptr, i32, i32, i32, i32, i32, ptr, ptr, ptr, i32, i32, i32, i32, i32, i32, i32, i64, i32, i32, i64, i32, i32, i32, i32, i32, i32, i32, i64, ptr, ptr, i64, ptr, i32, %struct.aclInfo, i32, i64, i32, i32, i32, %struct.redisTLSContextConfig, ptr, ptr, ptr, ptr, ptr, i64, i32, ptr, i32, i32, i32, i64, i32, ptr }
%struct.connListener = type { [16 x i32], i32, ptr, i32, i32, ptr, ptr }
%struct.pause_event = type { i32, i64 }
%struct.malloc_stats = type { i64, i64, i64, i64, i64, i64, i64, i64, i64, i64, i64 }
%struct.anon = type { i64, i64, [16 x i64], i32 }
%struct.durationStats = type { i64, i64, i64 }
%struct.clientBufferLimitsConfig = type { i64, i64, i64 }
%struct.redisOpArray = type { ptr, i32, i32 }
%struct.replDataBuf = type { ptr, i64, i64, i64, i64 }
%struct.aclInfo = type { i64, i64, i64, i64 }
%struct.redisTLSContextConfig = type { ptr, ptr, ptr, ptr, ptr, ptr, ptr, ptr, ptr, ptr, ptr, ptr, i32, i32, i32, i32 }
%struct._rio = type { ptr, ptr, ptr, ptr, ptr, i64, i64, i64, i64, %union.anon }
%union.anon = type { %struct.anon.2 }
%struct.anon.2 = type { ptr, i64, ptr, i64, i64 }

@server = external global %struct.redisServer, align 8
@.str.150 = private unnamed_addr constant [23 x i8] c"temp-rewriteaof-%d.aof\00", align 1
@.str.151 = private unnamed_addr constant [2 x i8] c"w\00", align 1
@.str.152 = private unnamed_addr constant [69 x i8] c"Opening the temp file for AOF rewrite in rewriteAppendOnlyFile(): %s\00", align 1
@.str.153 = private unnamed_addr constant [33 x i8] c"Unable to reclaim page cache: %s\00", align 1
@.str.154 = private unnamed_addr constant [64 x i8] c"Error moving temp append only file on the final destination: %s\00", align 1
@.str.155 = private unnamed_addr constant [49 x i8] c"Write error writing append only file on disk: %s\00", align 1

; Function Attrs: nounwind uwtable
define dso_local i32 @rewriteAppendOnlyFile(ptr noundef %0) #0 {
  %2 = alloca i32, align 4
  %3 = alloca ptr, align 8
  %4 = alloca %struct._rio, align 8
  %5 = alloca ptr, align 8
  %6 = alloca [256 x i8], align 16
  %7 = alloca i32, align 4
  %8 = alloca i32, align 4
  store ptr %0, ptr %3, align 8, !tbaa !18
  call void @llvm.lifetime.start.p0(i64 112, ptr %4) #12
  call void @llvm.lifetime.start.p0(i64 8, ptr %5) #12
  store ptr null, ptr %5, align 8, !tbaa !69
  call void @llvm.lifetime.start.p0(i64 256, ptr %6) #12
  %9 = getelementptr inbounds [256 x i8], ptr %6, i64 0, i64 0
  %10 = call i32 @getpid() #12
  %11 = call i32 (ptr, i64, ptr, ...) @snprintf(ptr noundef %9, i64 noundef 256, ptr noundef @.str.150, i32 noundef %10) #12
  %12 = getelementptr inbounds [256 x i8], ptr %6, i64 0, i64 0
  %13 = call noalias ptr @fopen64(ptr noundef %12, ptr noundef @.str.151)
  store ptr %13, ptr %5, align 8, !tbaa !69
  %14 = load ptr, ptr %5, align 8, !tbaa !69
  %15 = icmp ne ptr %14, null
  br i1 %15, label %27, label %16

16:                                               ; preds = %1
  br label %17

17:                                               ; preds = %16
  %18 = load i32, ptr getelementptr inbounds nuw (%struct.redisServer, ptr @server, i32 0, i32 159), align 8, !tbaa !67
  %19 = icmp slt i32 3, %18
  br i1 %19, label %20, label %21

20:                                               ; preds = %17
  br label %26

21:                                               ; preds = %17
  %22 = call ptr @__errno_location() #15
  %23 = load i32, ptr %22, align 4, !tbaa !22
  %24 = call ptr @strerror(i32 noundef %23) #12
  call void (i32, ptr, ...) @_serverLog(i32 noundef 3, ptr noundef @.str.152, ptr noundef %24)
  br label %25

25:                                               ; preds = %21
  br label %26

26:                                               ; preds = %25, %20
  store i32 -1, ptr %2, align 4
  store i32 1, ptr %7, align 4
  br label %120

27:                                               ; preds = %1
  %28 = load ptr, ptr %5, align 8, !tbaa !69
  call void @rioInitWithFile(ptr noundef %4, ptr noundef %28)
  %29 = load i32, ptr getelementptr inbounds nuw (%struct.redisServer, ptr @server, i32 0, i32 217), align 8, !tbaa !87
  %30 = icmp ne i32 %29, 0
  br i1 %30, label %31, label %32

31:                                               ; preds = %27
  call void @rioSetAutoSync(ptr noundef %4, i64 noundef 4194304)
  call void @rioSetReclaimCache(ptr noundef %4, i32 noundef 1)
  br label %32

32:                                               ; preds = %31, %27
  call void @startSaving(i32 noundef 1)
  %33 = load i32, ptr getelementptr inbounds nuw (%struct.redisServer, ptr @server, i32 0, i32 222), align 4, !tbaa !76
  %34 = icmp ne i32 %33, 0
  br i1 %34, label %35, label %45

35:                                               ; preds = %32
  call void @llvm.lifetime.start.p0(i64 4, ptr %8) #12
  %36 = call i32 @rdbSaveRio(i32 noundef 0, ptr noundef %4, ptr noundef %8, i32 noundef 1, ptr noundef null)
  %37 = icmp eq i32 %36, -1
  br i1 %37, label %38, label %41

38:                                               ; preds = %35
  %39 = load i32, ptr %8, align 4, !tbaa !22
  %40 = call ptr @__errno_location() #15
  store i32 %39, ptr %40, align 4, !tbaa !22
  store i32 4, ptr %7, align 4
  br label %42

41:                                               ; preds = %35
  store i32 0, ptr %7, align 4
  br label %42

42:                                               ; preds = %38, %41
  call void @llvm.lifetime.end.p0(i64 4, ptr %8) #12
  %43 = load i32, ptr %7, align 4
  switch i32 %43, label %120 [
    i32 0, label %44
    i32 4, label %101
  ]

44:                                               ; preds = %42
  br label %50

45:                                               ; preds = %32
  %46 = call i32 @rewriteAppendOnlyFileRio(ptr noundef %4)
  %47 = icmp eq i32 %46, -1
  br i1 %47, label %48, label %49

48:                                               ; preds = %45
  br label %101

49:                                               ; preds = %45
  br label %50

50:                                               ; preds = %49, %44
  %51 = load ptr, ptr %5, align 8, !tbaa !69
  %52 = call i32 @fflush(ptr noundef %51)
  %53 = icmp ne i32 %52, 0
  br i1 %53, label %54, label %55

54:                                               ; preds = %50
  br label %101

55:                                               ; preds = %50
  %56 = load ptr, ptr %5, align 8, !tbaa !69
  %57 = call i32 @fileno(ptr noundef %56) #12
  %58 = call i32 @fsync(i32 noundef %57)
  %59 = icmp ne i32 %58, 0
  br i1 %59, label %60, label %61

60:                                               ; preds = %55
  br label %101

61:                                               ; preds = %55
  %62 = load ptr, ptr %5, align 8, !tbaa !69
  %63 = call i32 @fileno(ptr noundef %62) #12
  %64 = call i32 @reclaimFilePageCache(i32 noundef %63, i64 noundef 0, i64 noundef 0)
  %65 = icmp eq i32 %64, -1
  br i1 %65, label %66, label %77

66:                                               ; preds = %61
  br label %67

67:                                               ; preds = %66
  %68 = load i32, ptr getelementptr inbounds nuw (%struct.redisServer, ptr @server, i32 0, i32 159), align 8, !tbaa !67
  %69 = icmp slt i32 2, %68
  br i1 %69, label %70, label %71

70:                                               ; preds = %67
  br label %76

71:                                               ; preds = %67
  %72 = call ptr @__errno_location() #15
  %73 = load i32, ptr %72, align 4, !tbaa !22
  %74 = call ptr @strerror(i32 noundef %73) #12
  call void (i32, ptr, ...) @_serverLog(i32 noundef 2, ptr noundef @.str.153, ptr noundef %74)
  br label %75

75:                                               ; preds = %71
  br label %76

76:                                               ; preds = %75, %70
  br label %77

77:                                               ; preds = %76, %61
  %78 = load ptr, ptr %5, align 8, !tbaa !69
  %79 = call i32 @fclose(ptr noundef %78)
  %80 = icmp ne i32 %79, 0
  br i1 %80, label %81, label %82

81:                                               ; preds = %77
  store ptr null, ptr %5, align 8, !tbaa !69
  br label %101

82:                                               ; preds = %77
  store ptr null, ptr %5, align 8, !tbaa !69
  %83 = getelementptr inbounds [256 x i8], ptr %6, i64 0, i64 0
  %84 = load ptr, ptr %3, align 8, !tbaa !18
  %85 = call i32 @rename(ptr noundef %83, ptr noundef %84) #12
  %86 = icmp eq i32 %85, -1
  br i1 %86, label %87, label %100

87:                                               ; preds = %82
  br label %88

88:                                               ; preds = %87
  %89 = load i32, ptr getelementptr inbounds nuw (%struct.redisServer, ptr @server, i32 0, i32 159), align 8, !tbaa !67
  %90 = icmp slt i32 3, %89
  br i1 %90, label %91, label %92

91:                                               ; preds = %88
  br label %97

92:                                               ; preds = %88
  %93 = call ptr @__errno_location() #15
  %94 = load i32, ptr %93, align 4, !tbaa !22
  %95 = call ptr @strerror(i32 noundef %94) #12
  call void (i32, ptr, ...) @_serverLog(i32 noundef 3, ptr noundef @.str.154, ptr noundef %95)
  br label %96

96:                                               ; preds = %92
  br label %97

97:                                               ; preds = %96, %91
  %98 = getelementptr inbounds [256 x i8], ptr %6, i64 0, i64 0
  %99 = call i32 @unlink(ptr noundef %98) #12
  call void @stopSaving(i32 noundef 0)
  store i32 -1, ptr %2, align 4
  store i32 1, ptr %7, align 4
  br label %120

100:                                              ; preds = %82
  call void @stopSaving(i32 noundef 1)
  store i32 0, ptr %2, align 4
  store i32 1, ptr %7, align 4
  br label %120

101:                                              ; preds = %42, %81, %60, %54, %48
  br label %102

102:                                              ; preds = %101
  %103 = load i32, ptr getelementptr inbounds nuw (%struct.redisServer, ptr @server, i32 0, i32 159), align 8, !tbaa !67
  %104 = icmp slt i32 3, %103
  br i1 %104, label %105, label %106

105:                                              ; preds = %102
  br label %111

106:                                              ; preds = %102
  %107 = call ptr @__errno_location() #15
  %108 = load i32, ptr %107, align 4, !tbaa !22
  %109 = call ptr @strerror(i32 noundef %108) #12
  call void (i32, ptr, ...) @_serverLog(i32 noundef 3, ptr noundef @.str.155, ptr noundef %109)
  br label %110

110:                                              ; preds = %106
  br label %111

111:                                              ; preds = %110, %105
  %112 = load ptr, ptr %5, align 8, !tbaa !69
  %113 = icmp ne ptr %112, null
  br i1 %113, label %114, label %117

114:                                              ; preds = %111
  %115 = load ptr, ptr %5, align 8, !tbaa !69
  %116 = call i32 @fclose(ptr noundef %115)
  br label %117

117:                                              ; preds = %114, %111
  %118 = getelementptr inbounds [256 x i8], ptr %6, i64 0, i64 0
  %119 = call i32 @unlink(ptr noundef %118) #12
  call void @stopSaving(i32 noundef 0)
  store i32 -1, ptr %2, align 4
  store i32 1, ptr %7, align 4
  br label %120

120:                                              ; preds = %117, %100, %97, %42, %26
  call void @llvm.lifetime.end.p0(i64 256, ptr %6) #12
  call void @llvm.lifetime.end.p0(i64 8, ptr %5) #12
  call void @llvm.lifetime.end.p0(i64 112, ptr %4) #12
  %121 = load i32, ptr %2, align 4
  ret i32 %121
}