; Function Attrs: nounwind uwtable
define dso_local range(i32 -1, 1) i32 @rewriteAppendOnlyFile(ptr noundef readonly captures(none) %0) local_unnamed_addr #0 {
  %2 = alloca %struct._rio, align 8
  %3 = alloca [256 x i8], align 16
  %4 = alloca i32, align 4
  call void @llvm.lifetime.start.p0(i64 112, ptr nonnull %2) #20
  call void @llvm.lifetime.start.p0(i64 256, ptr nonnull %3) #20
  %5 = tail call i32 @getpid() #20
  %6 = call i32 (ptr, i64, ptr, ...) @snprintf(ptr noundef nonnull dereferenceable(1) %3, i64 noundef 256, ptr noundef nonnull @.str.150, i32 noundef %5) #20
  %7 = call noalias ptr @fopen64(ptr noundef nonnull %3, ptr noundef nonnull @.str.151)
  %.not = icmp eq ptr %7, null
  br i1 %.not, label %8, label %15

8:                                                ; preds = %1
  %9 = load i32, ptr getelementptr inbounds nuw (i8, ptr @server, i64 6288), align 8, !tbaa !65
  %10 = icmp sgt i32 %9, 3
  br i1 %10, label %71, label %11

11:                                               ; preds = %8
  %12 = tail call ptr @__errno_location() #22
  %13 = load i32, ptr %12, align 4, !tbaa !21
  %14 = tail call ptr @strerror(i32 noundef %13) #20
  tail call void (i32, ptr, ...) @_serverLog(i32 noundef 3, ptr noundef nonnull @.str.152, ptr noundef %14) #20
  br label %71

15:                                               ; preds = %1
  call void @rioInitWithFile(ptr noundef nonnull %2, ptr noundef nonnull %7) #20
  %16 = load i32, ptr getelementptr inbounds nuw (i8, ptr @server, i64 6672), align 8, !tbaa !82
  %.not14 = icmp eq i32 %16, 0
  br i1 %.not14, label %18, label %17

17:                                               ; preds = %15
  call void @rioSetAutoSync(ptr noundef nonnull %2, i64 noundef 4194304) #20
  call void @rioSetReclaimCache(ptr noundef nonnull %2, i32 noundef 1) #20
  br label %18

18:                                               ; preds = %17, %15
  call void @startSaving(i32 noundef 1) #20
  %19 = load i32, ptr getelementptr inbounds nuw (i8, ptr @server, i64 6692), align 4, !tbaa !72
  %.not15 = icmp eq i32 %19, 0
  br i1 %.not15, label %26, label %20

20:                                               ; preds = %18
  call void @llvm.lifetime.start.p0(i64 4, ptr nonnull %4) #20
  %21 = call i32 @rdbSaveRio(i32 noundef 0, ptr noundef nonnull %2, ptr noundef nonnull %4, i32 noundef 1, ptr noundef null) #20
  %22 = icmp eq i32 %21, -1
  br i1 %22, label %23, label %.thread

.thread:                                          ; preds = %20
  call void @llvm.lifetime.end.p0(i64 4, ptr nonnull %4) #20
  br label %29

23:                                               ; preds = %20
  %24 = load i32, ptr %4, align 4, !tbaa !21
  %25 = tail call ptr @__errno_location() #22
  store i32 %24, ptr %25, align 4, !tbaa !21
  call void @llvm.lifetime.end.p0(i64 4, ptr nonnull %4) #20
  br label %59

26:                                               ; preds = %18
  %27 = call i32 @rewriteAppendOnlyFileRio(ptr noundef nonnull %2)
  %28 = icmp eq i32 %27, -1
  br i1 %28, label %59, label %29

29:                                               ; preds = %.thread, %26
  %30 = call i32 @fflush(ptr noundef nonnull %7)
  %.not16 = icmp eq i32 %30, 0
  br i1 %.not16, label %31, label %59

31:                                               ; preds = %29
  %32 = call i32 @fileno(ptr noundef nonnull %7) #20
  %33 = call i32 @fsync(i32 noundef %32) #20
  %.not17 = icmp eq i32 %33, 0
  br i1 %.not17, label %34, label %59

34:                                               ; preds = %31
  %35 = call i32 @fileno(ptr noundef nonnull %7) #20
  %36 = call i32 @reclaimFilePageCache(i32 noundef %35, i64 noundef 0, i64 noundef 0) #20
  %37 = icmp ne i32 %36, -1
  %38 = load i32, ptr getelementptr inbounds nuw (i8, ptr @server, i64 6288), align 8
  %39 = icmp sgt i32 %38, 2
  %or.cond = select i1 %37, i1 true, i1 %39
  br i1 %or.cond, label %44, label %40

40:                                               ; preds = %34
  %41 = tail call ptr @__errno_location() #22
  %42 = load i32, ptr %41, align 4, !tbaa !21
  %43 = call ptr @strerror(i32 noundef %42) #20
  call void (i32, ptr, ...) @_serverLog(i32 noundef 2, ptr noundef nonnull @.str.153, ptr noundef %43) #20
  br label %44

44:                                               ; preds = %40, %34
  %45 = call i32 @fclose(ptr noundef nonnull %7)
  %.not18 = icmp eq i32 %45, 0
  br i1 %.not18, label %46, label %59

46:                                               ; preds = %44
  %47 = call i32 @rename(ptr noundef nonnull %3, ptr noundef %0) #20
  %48 = icmp eq i32 %47, -1
  br i1 %48, label %49, label %58

49:                                               ; preds = %46
  %50 = load i32, ptr getelementptr inbounds nuw (i8, ptr @server, i64 6288), align 8, !tbaa !65
  %51 = icmp sgt i32 %50, 3
  br i1 %51, label %56, label %52

52:                                               ; preds = %49
  %53 = tail call ptr @__errno_location() #22
  %54 = load i32, ptr %53, align 4, !tbaa !21
  %55 = call ptr @strerror(i32 noundef %54) #20
  call void (i32, ptr, ...) @_serverLog(i32 noundef 3, ptr noundef nonnull @.str.154, ptr noundef %55) #20
  br label %56

56:                                               ; preds = %49, %52
  %57 = call i32 @unlink(ptr noundef nonnull %3) #20
  call void @stopSaving(i32 noundef 0) #20
  br label %71

58:                                               ; preds = %46
  call void @stopSaving(i32 noundef 1) #20
  br label %71

59:                                               ; preds = %23, %44, %26, %29, %31
  %.011 = phi ptr [ %7, %23 ], [ %7, %29 ], [ %7, %31 ], [ %7, %26 ], [ null, %44 ]
  %60 = load i32, ptr getelementptr inbounds nuw (i8, ptr @server, i64 6288), align 8, !tbaa !65
  %61 = icmp sgt i32 %60, 3
  br i1 %61, label %66, label %62

62:                                               ; preds = %59
  %63 = tail call ptr @__errno_location() #22
  %64 = load i32, ptr %63, align 4, !tbaa !21
  %65 = call ptr @strerror(i32 noundef %64) #20
  call void (i32, ptr, ...) @_serverLog(i32 noundef 3, ptr noundef nonnull @.str.155, ptr noundef %65) #20
  br label %66

66:                                               ; preds = %59, %62
  %.not19 = icmp eq ptr %.011, null
  br i1 %.not19, label %69, label %67

67:                                               ; preds = %66
  %68 = call i32 @fclose(ptr noundef nonnull %.011)
  br label %69

69:                                               ; preds = %67, %66
  %70 = call i32 @unlink(ptr noundef nonnull %3) #20
  call void @stopSaving(i32 noundef 0) #20
  br label %71

71:                                               ; preds = %11, %8, %69, %58, %56
  %.012 = phi i32 [ -1, %69 ], [ -1, %56 ], [ 0, %58 ], [ -1, %8 ], [ -1, %11 ]
  call void @llvm.lifetime.end.p0(i64 256, ptr nonnull %3) #20
  call void @llvm.lifetime.end.p0(i64 112, ptr nonnull %2) #20
  ret i32 %.012
}